; Function Attrs: nounwind uwtable
define dso_local i32 @update_gres_node(ptr noundef %0, ptr noundef %1, ptr noundef %2) local_unnamed_addr #0 {
  %4 = alloca [100 x i8], align 16
  call void @llvm.lifetime.start.p0(i64 100, ptr nonnull %4) #11
  %5 = tail call ptr @slurm_xcalloc(i64 noundef 1, i64 noundef 128, i1 noundef zeroext true, i1 noundef zeroext false, ptr noundef nonnull @.str, i32 noundef 1193, ptr noundef nonnull @__func__.update_gres_node) #11
  %.not.not = icmp eq ptr %0, null
  br i1 %.not.not, label %6, label %14

6:                                                ; preds = %3
  %7 = call i32 (ptr, i64, ptr, ...) @snprintf(ptr noundef nonnull dereferenceable(1) %4, i64 noundef 100, ptr noundef nonnull @.str.11, ptr noundef %1) #11
  %8 = load ptr, ptr @main_window, align 8
  %9 = tail call i64 @gtk_window_get_type() #12
  %10 = tail call ptr @g_type_check_instance_cast(ptr noundef %8, i64 noundef %9) #11
  %11 = call ptr (ptr, ptr, i32, ptr, ...) @gtk_dialog_new_with_buttons(ptr noundef nonnull %4, ptr noundef %10, i32 noundef 3, ptr noundef null) #11
  %12 = tail call i64 @gtk_dialog_get_type() #12
  %13 = call ptr @g_type_check_instance_cast(ptr noundef %11, i64 noundef %12) #11
  br label %14

14:                                               ; preds = %6, %3
  %.039 = phi ptr [ %0, %3 ], [ %13, %6 ]
  %15 = call ptr @gtk_dialog_add_button(ptr noundef %.039, ptr noundef nonnull @.str.3, i32 noundef -5) #11
  %16 = tail call i64 @gtk_window_get_type() #12
  %17 = call ptr @g_type_check_instance_cast(ptr noundef %.039, i64 noundef %16) #11
  call void @gtk_window_set_type_hint(ptr noundef %17, i32 noundef 0) #11
  %18 = call ptr @g_type_check_instance_cast(ptr noundef %.039, i64 noundef %16) #11
  call void @gtk_window_set_default(ptr noundef %18, ptr noundef %15) #11
  %19 = call ptr @gtk_dialog_add_button(ptr noundef %.039, ptr noundef nonnull @.str.4, i32 noundef -6) #11
  call void @slurm_init_update_node_msg(ptr noundef %5) #11
  %20 = call ptr @xstrdup(ptr noundef %1) #11
  %21 = getelementptr inbounds nuw i8, ptr %5, i64 88
  store ptr %20, ptr %21, align 8
  %22 = call i32 (ptr, i64, ptr, ...) @snprintf(ptr noundef nonnull dereferenceable(1) %4, i64 noundef 100, ptr noundef nonnull @.str.12, ptr noundef %1) #11
  %23 = call ptr @gtk_label_new(ptr noundef nonnull %4) #11
  %24 = getelementptr inbounds nuw i8, ptr %.039, i64 240
  %25 = load ptr, ptr %24, align 8
  %26 = tail call i64 @gtk_box_get_type() #12
  %27 = call ptr @g_type_check_instance_cast(ptr noundef %25, i64 noundef %26) #11
  call void @gtk_box_pack_start(ptr noundef %27, ptr noundef %23, i32 noundef 0, i32 noundef 0, i32 noundef 0) #11
  %28 = call ptr @create_entry() #11
  %.not44 = icmp eq ptr %28, null
  br i1 %.not44, label %56, label %29

29:                                               ; preds = %14
  %.not45 = icmp eq ptr %2, null
  br i1 %.not45, label %33, label %30

30:                                               ; preds = %29
  %31 = tail call i64 @gtk_entry_get_type() #12
  %32 = call ptr @g_type_check_instance_cast(ptr noundef nonnull %28, i64 noundef %31) #11
  call void @gtk_entry_set_text(ptr noundef %32, ptr noundef nonnull %2) #11
  br label %33

33:                                               ; preds = %30, %29
  %34 = load ptr, ptr %24, align 8
  %35 = call ptr @g_type_check_instance_cast(ptr noundef %34, i64 noundef %26) #11
  call void @gtk_box_pack_start(ptr noundef %35, ptr noundef nonnull %28, i32 noundef 1, i32 noundef 1, i32 noundef 0) #11
  %36 = tail call i64 @gtk_widget_get_type() #12
  %37 = call ptr @g_type_check_instance_cast(ptr noundef nonnull %.039, i64 noundef %36) #11
  call void @gtk_widget_show_all(ptr noundef %37) #11
  %38 = call i32 @gtk_dialog_run(ptr noundef nonnull %.039) #11
  %39 = icmp eq i32 %38, -5
  br i1 %39, label %40, label %56

40:                                               ; preds = %33
  %41 = tail call i64 @gtk_entry_get_type() #12
  %42 = call ptr @g_type_check_instance_cast(ptr noundef nonnull %28, i64 noundef %41) #11
  %43 = call ptr @gtk_entry_get_text(ptr noundef %42) #11
  %44 = call ptr @xstrdup(ptr noundef %43) #11
  %45 = getelementptr inbounds nuw i8, ptr %5, i64 48
  store ptr %44, ptr %45, align 8
  %.not46 = icmp eq ptr %44, null
  br i1 %.not46, label %46, label %48

46:                                               ; preds = %40
  %47 = call noalias ptr (ptr, ...) @g_strdup_printf(ptr noundef nonnull @.str.13) #11
  br label %.sink.split

48:                                               ; preds = %40
  %49 = call i32 @slurm_update_node(ptr noundef nonnull %5) #11
  %50 = icmp eq i32 %49, 0
  br i1 %50, label %51, label %53

51:                                               ; preds = %48
  %52 = call noalias ptr (ptr, ...) @g_strdup_printf(ptr noundef nonnull @.str.14, ptr noundef %1) #11
  br label %.sink.split

53:                                               ; preds = %48
  %54 = call ptr @slurm_strerror(i32 noundef %49) #11
  %55 = call noalias ptr (ptr, ...) @g_strdup_printf(ptr noundef nonnull @.str.15, ptr noundef %1, ptr noundef %54) #11
  br label %.sink.split

.sink.split:                                      ; preds = %46, %51, %53
  %.sink48 = phi ptr [ %55, %53 ], [ %52, %51 ], [ %47, %46 ]
  %.0.ph = phi i32 [ %49, %53 ], [ 0, %51 ], [ 0, %46 ]
  call void @display_edit_note(ptr noundef %.sink48) #11
  call void @g_free(ptr noundef %.sink48) #11
  br label %56

56:                                               ; preds = %.sink.split, %33, %14
  %.0 = phi i32 [ 0, %33 ], [ 0, %14 ], [ %.0.ph, %.sink.split ]
  call void @slurm_free_update_node_msg(ptr noundef nonnull %5) #11
  br i1 %.not.not, label %57, label %60

57:                                               ; preds = %56
  %58 = tail call i64 @gtk_widget_get_type() #12
  %59 = call ptr @g_type_check_instance_cast(ptr noundef nonnull %.039, i64 noundef %58) #11
  call void @gtk_widget_destroy(ptr noundef %59) #11
  br label %60

60:                                               ; preds = %57, %56
  call void @llvm.lifetime.end.p0(i64 100, ptr nonnull %4) #11
  ret i32 %.0
}